; Function Attrs: mustprogress nounwind uwtable
define void @_ZN6icu_757UVectorD2Ev(ptr noundef nonnull align 8 dereferenceable(40) %this) unnamed_addr #4 align 2 personality ptr @__gxx_personality_v0 {
entry:
  store ptr getelementptr inbounds ({ [5 x ptr] }, ptr @_ZTVN6icu_757UVectorE, i64 0, i32 0, i64 2), ptr %this, align 8
  %deleter.i = getelementptr inbounds i8, ptr %this, i64 24
  %0 = load ptr, ptr %deleter.i, align 8
  %cmp.not.i = icmp eq ptr %0, null
  br i1 %cmp.not.i, label %invoke.cont, label %for.cond.preheader.i

for.cond.preheader.i:                             ; preds = %entry
  %count.i = getelementptr inbounds i8, ptr %this, i64 8
  %1 = load i32, ptr %count.i, align 8
  %cmp24.i = icmp sgt i32 %1, 0
  br i1 %cmp24.i, label %for.body.lr.ph.i, label %invoke.cont

for.body.lr.ph.i:                                 ; preds = %for.cond.preheader.i
  %elements.i = getelementptr inbounds i8, ptr %this, i64 16
  br label %for.body.i

for.body.i:                                       ; preds = %for.inc.i, %for.body.lr.ph.i
  %2 = phi i32 [ %1, %for.body.lr.ph.i ], [ %6, %for.inc.i ]
  %indvars.iv.i = phi i64 [ 0, %for.body.lr.ph.i ], [ %indvars.iv.next.i, %for.inc.i ]
  %3 = load ptr, ptr %elements.i, align 8
  %arrayidx.i = getelementptr inbounds %union.UElement, ptr %3, i64 %indvars.iv.i
  %4 = load ptr, ptr %arrayidx.i, align 8
  %cmp3.not.i = icmp eq ptr %4, null
  br i1 %cmp3.not.i, label %for.inc.i, label %if.then4.i

if.then4.i:                                       ; preds = %for.body.i
  %5 = load ptr, ptr %deleter.i, align 8
  invoke void %5(ptr noundef nonnull %4)
          to label %.noexc unwind label %terminate.lpad.loopexit

.noexc:                                           ; preds = %if.then4.i
  %.pre.i = load i32, ptr %count.i, align 8
  br label %for.inc.i

for.inc.i:                                        ; preds = %.noexc, %for.body.i
  %6 = phi i32 [ %2, %for.body.i ], [ %.pre.i, %.noexc ]
  %indvars.iv.next.i = add nuw nsw i64 %indvars.iv.i, 1
  %7 = sext i32 %6 to i64
  %cmp2.i = icmp slt i64 %indvars.iv.next.i, %7
  br i1 %cmp2.i, label %for.body.i, label %invoke.cont, !llvm.loop !4

invoke.cont:                                      ; preds = %for.inc.i, %for.cond.preheader.i, %entry
  %count10.i = getelementptr inbounds i8, ptr %this, i64 8
  store i32 0, ptr %count10.i, align 8
  %elements = getelementptr inbounds i8, ptr %this, i64 16
  %8 = load ptr, ptr %elements, align 8
  invoke void @uprv_free_75(ptr noundef %8)
          to label %invoke.cont2 unwind label %terminate.lpad.loopexit.split-lp

invoke.cont2:                                     ; preds = %invoke.cont
  store ptr null, ptr %elements, align 8
  tail call void @_ZN6icu_757UObjectD2Ev(ptr noundef nonnull align 8 dereferenceable(8) %this) #15
  ret void

terminate.lpad.loopexit:                          ; preds = %if.then4.i
  %lpad.loopexit = landingpad { ptr, i32 }
          catch ptr null
  br label %terminate.lpad

terminate.lpad.loopexit.split-lp:                 ; preds = %invoke.cont
  %lpad.loopexit.split-lp = landingpad { ptr, i32 }
          catch ptr null
  br label %terminate.lpad

terminate.lpad:                                   ; preds = %terminate.lpad.loopexit.split-lp, %terminate.lpad.loopexit
  %lpad.phi = phi { ptr, i32 } [ %lpad.loopexit, %terminate.lpad.loopexit ], [ %lpad.loopexit.split-lp, %terminate.lpad.loopexit.split-lp ]
  %9 = extractvalue { ptr, i32 } %lpad.phi, 0
  tail call void @__clang_call_terminate(ptr %9) #17
  unreachable
}